
rv32um-v-divu:     file format elf32-littleriscv


Disassembly of section .text.init:

80000000 <_start>:
80000000:	00c0006f          	j	8000000c <handle_reset>

80000004 <nmi_vector>:
80000004:	3000106f          	j	80001304 <wtf>

80000008 <trap_vector>:
80000008:	2fc0106f          	j	80001304 <wtf>

8000000c <handle_reset>:
8000000c:	00000093          	li	ra,0
80000010:	00000113          	li	sp,0
80000014:	00000193          	li	gp,0
80000018:	00000213          	li	tp,0
8000001c:	00000293          	li	t0,0
80000020:	00000313          	li	t1,0
80000024:	00000393          	li	t2,0
80000028:	00000413          	li	s0,0
8000002c:	00000493          	li	s1,0
80000030:	00000513          	li	a0,0
80000034:	00000593          	li	a1,0
80000038:	00000613          	li	a2,0
8000003c:	00000693          	li	a3,0
80000040:	00000713          	li	a4,0
80000044:	00000793          	li	a5,0
80000048:	00000813          	li	a6,0
8000004c:	00000893          	li	a7,0
80000050:	00000913          	li	s2,0
80000054:	00000993          	li	s3,0
80000058:	00000a13          	li	s4,0
8000005c:	00000a93          	li	s5,0
80000060:	00000b13          	li	s6,0
80000064:	00000b93          	li	s7,0
80000068:	00000c13          	li	s8,0
8000006c:	00000c93          	li	s9,0
80000070:	00000d13          	li	s10,0
80000074:	00000d93          	li	s11,0
80000078:	00000e13          	li	t3,0
8000007c:	00000e93          	li	t4,0
80000080:	00000f13          	li	t5,0
80000084:	00000f93          	li	t6,0
80000088:	00000297          	auipc	t0,0x0
8000008c:	01028293          	addi	t0,t0,16 # 80000098 <handle_reset+0x8c>
80000090:	30529073          	csrw	mtvec,t0
80000094:	74445073          	csrwi	0x744,8
80000098:	00000297          	auipc	t0,0x0
8000009c:	f7028293          	addi	t0,t0,-144 # 80000008 <trap_vector>
800000a0:	30529073          	csrw	mtvec,t0
800000a4:	00009117          	auipc	sp,0x9
800000a8:	ecc10113          	addi	sp,sp,-308 # 80008f70 <freelist_head+0x3f6c>
800000ac:	f14022f3          	csrr	t0,mhartid
800000b0:	00c29293          	slli	t0,t0,0xc
800000b4:	00510133          	add	sp,sp,t0
800000b8:	34011073          	csrw	mscratch,sp
800000bc:	241010ef          	jal	80001afc <extra_boot>
800000c0:	00002517          	auipc	a0,0x2
800000c4:	a5050513          	addi	a0,a0,-1456 # 80001b10 <userstart>
800000c8:	04d0106f          	j	80001914 <vm_boot>

800000cc <pop_tf>:
800000cc:	08452283          	lw	t0,132(a0)
800000d0:	14129073          	csrw	sepc,t0
800000d4:	00452083          	lw	ra,4(a0)
800000d8:	00852103          	lw	sp,8(a0)
800000dc:	00c52183          	lw	gp,12(a0)
800000e0:	01052203          	lw	tp,16(a0)
800000e4:	01452283          	lw	t0,20(a0)
800000e8:	01852303          	lw	t1,24(a0)
800000ec:	01c52383          	lw	t2,28(a0)
800000f0:	02052403          	lw	s0,32(a0)
800000f4:	02452483          	lw	s1,36(a0)
800000f8:	02c52583          	lw	a1,44(a0)
800000fc:	03052603          	lw	a2,48(a0)
80000100:	03452683          	lw	a3,52(a0)
80000104:	03852703          	lw	a4,56(a0)
80000108:	03c52783          	lw	a5,60(a0)
8000010c:	04052803          	lw	a6,64(a0)
80000110:	04452883          	lw	a7,68(a0)
80000114:	04852903          	lw	s2,72(a0)
80000118:	04c52983          	lw	s3,76(a0)
8000011c:	05052a03          	lw	s4,80(a0)
80000120:	05452a83          	lw	s5,84(a0)
80000124:	05852b03          	lw	s6,88(a0)
80000128:	05c52b83          	lw	s7,92(a0)
8000012c:	06052c03          	lw	s8,96(a0)
80000130:	06452c83          	lw	s9,100(a0)
80000134:	06852d03          	lw	s10,104(a0)
80000138:	06c52d83          	lw	s11,108(a0)
8000013c:	07052e03          	lw	t3,112(a0)
80000140:	07452e83          	lw	t4,116(a0)
80000144:	07852f03          	lw	t5,120(a0)
80000148:	07c52f83          	lw	t6,124(a0)
8000014c:	02852503          	lw	a0,40(a0)
80000150:	10200073          	sret

80000154 <trap_entry>:
80000154:	14011173          	csrrw	sp,sscratch,sp
80000158:	00112223          	sw	ra,4(sp)
8000015c:	00312623          	sw	gp,12(sp)
80000160:	00412823          	sw	tp,16(sp)
80000164:	00512a23          	sw	t0,20(sp)
80000168:	00612c23          	sw	t1,24(sp)
8000016c:	00712e23          	sw	t2,28(sp)
80000170:	02812023          	sw	s0,32(sp)
80000174:	02912223          	sw	s1,36(sp)
80000178:	02a12423          	sw	a0,40(sp)
8000017c:	02b12623          	sw	a1,44(sp)
80000180:	02c12823          	sw	a2,48(sp)
80000184:	02d12a23          	sw	a3,52(sp)
80000188:	02e12c23          	sw	a4,56(sp)
8000018c:	02f12e23          	sw	a5,60(sp)
80000190:	05012023          	sw	a6,64(sp)
80000194:	05112223          	sw	a7,68(sp)
80000198:	05212423          	sw	s2,72(sp)
8000019c:	05312623          	sw	s3,76(sp)
800001a0:	05412823          	sw	s4,80(sp)
800001a4:	05512a23          	sw	s5,84(sp)
800001a8:	05612c23          	sw	s6,88(sp)
800001ac:	05712e23          	sw	s7,92(sp)
800001b0:	07812023          	sw	s8,96(sp)
800001b4:	07912223          	sw	s9,100(sp)
800001b8:	07a12423          	sw	s10,104(sp)
800001bc:	07b12623          	sw	s11,108(sp)
800001c0:	07c12823          	sw	t3,112(sp)
800001c4:	07d12a23          	sw	t4,116(sp)
800001c8:	07e12c23          	sw	t5,120(sp)
800001cc:	07f12e23          	sw	t6,124(sp)
800001d0:	140112f3          	csrrw	t0,sscratch,sp
800001d4:	00512423          	sw	t0,8(sp)
800001d8:	100022f3          	csrr	t0,sstatus
800001dc:	08512023          	sw	t0,128(sp)
800001e0:	141022f3          	csrr	t0,sepc
800001e4:	08512223          	sw	t0,132(sp)
800001e8:	143022f3          	csrr	t0,stval
800001ec:	08512423          	sw	t0,136(sp)
800001f0:	142022f3          	csrr	t0,scause
800001f4:	08512623          	sw	t0,140(sp)
800001f8:	00010513          	mv	a0,sp
800001fc:	41c0106f          	j	80001618 <handle_trap>

Disassembly of section .text:

80001000 <memcpy>:
80001000:	00c5e7b3          	or	a5,a1,a2
80001004:	00f567b3          	or	a5,a0,a5
80001008:	0037f793          	andi	a5,a5,3
8000100c:	00c506b3          	add	a3,a0,a2
80001010:	02078463          	beqz	a5,80001038 <memcpy+0x38>
80001014:	00c58633          	add	a2,a1,a2
80001018:	00050793          	mv	a5,a0
8000101c:	02d57e63          	bgeu	a0,a3,80001058 <memcpy+0x58>
80001020:	0005c703          	lbu	a4,0(a1)
80001024:	00158593          	addi	a1,a1,1
80001028:	00178793          	addi	a5,a5,1
8000102c:	fee78fa3          	sb	a4,-1(a5)
80001030:	feb618e3          	bne	a2,a1,80001020 <memcpy+0x20>
80001034:	00008067          	ret
80001038:	fed57ee3          	bgeu	a0,a3,80001034 <memcpy+0x34>
8000103c:	00050793          	mv	a5,a0
80001040:	0005a703          	lw	a4,0(a1)
80001044:	00478793          	addi	a5,a5,4
80001048:	00458593          	addi	a1,a1,4
8000104c:	fee7ae23          	sw	a4,-4(a5)
80001050:	fed7e8e3          	bltu	a5,a3,80001040 <memcpy+0x40>
80001054:	00008067          	ret
80001058:	00008067          	ret

8000105c <memset>:
8000105c:	ff010113          	addi	sp,sp,-16
80001060:	00c567b3          	or	a5,a0,a2
80001064:	00812423          	sw	s0,8(sp)
80001068:	00112623          	sw	ra,12(sp)
8000106c:	0037f793          	andi	a5,a5,3
80001070:	00050413          	mv	s0,a0
80001074:	00c50733          	add	a4,a0,a2
80001078:	02078263          	beqz	a5,8000109c <memset+0x40>
8000107c:	00e57663          	bgeu	a0,a4,80001088 <memset+0x2c>
80001080:	0ff5f593          	zext.b	a1,a1
80001084:	fd9ff0ef          	jal	8000105c <memset>
80001088:	00c12083          	lw	ra,12(sp)
8000108c:	00040513          	mv	a0,s0
80001090:	00812403          	lw	s0,8(sp)
80001094:	01010113          	addi	sp,sp,16
80001098:	00008067          	ret
8000109c:	0ff5f593          	zext.b	a1,a1
800010a0:	00859693          	slli	a3,a1,0x8
800010a4:	00b686b3          	add	a3,a3,a1
800010a8:	01069793          	slli	a5,a3,0x10
800010ac:	00f686b3          	add	a3,a3,a5
800010b0:	fce57ce3          	bgeu	a0,a4,80001088 <memset+0x2c>
800010b4:	00050793          	mv	a5,a0
800010b8:	00478793          	addi	a5,a5,4
800010bc:	fed7ae23          	sw	a3,-4(a5)
800010c0:	fee7ece3          	bltu	a5,a4,800010b8 <memset+0x5c>
800010c4:	00c12083          	lw	ra,12(sp)
800010c8:	00040513          	mv	a0,s0
800010cc:	00812403          	lw	s0,8(sp)
800010d0:	01010113          	addi	sp,sp,16
800010d4:	00008067          	ret

800010d8 <strlen>:
800010d8:	00054783          	lbu	a5,0(a0)
800010dc:	00078e63          	beqz	a5,800010f8 <strlen+0x20>
800010e0:	00050793          	mv	a5,a0
800010e4:	0017c703          	lbu	a4,1(a5)
800010e8:	00178793          	addi	a5,a5,1
800010ec:	fe071ce3          	bnez	a4,800010e4 <strlen+0xc>
800010f0:	40a78533          	sub	a0,a5,a0
800010f4:	00008067          	ret
800010f8:	00000513          	li	a0,0
800010fc:	00008067          	ret

80001100 <strcmp>:
80001100:	00054783          	lbu	a5,0(a0)
80001104:	00150513          	addi	a0,a0,1
80001108:	00158593          	addi	a1,a1,1
8000110c:	fff5c703          	lbu	a4,-1(a1)
80001110:	00078863          	beqz	a5,80001120 <strcmp+0x20>
80001114:	fee786e3          	beq	a5,a4,80001100 <strcmp>
80001118:	40e78533          	sub	a0,a5,a4
8000111c:	00008067          	ret
80001120:	00000793          	li	a5,0
80001124:	ff5ff06f          	j	80001118 <strcmp+0x18>

80001128 <memcmp>:
80001128:	00b567b3          	or	a5,a0,a1
8000112c:	0037f793          	andi	a5,a5,3
80001130:	02079e63          	bnez	a5,8000116c <memcmp+0x44>
80001134:	ffc67813          	andi	a6,a2,-4
80001138:	01050833          	add	a6,a0,a6
8000113c:	03057863          	bgeu	a0,a6,8000116c <memcmp+0x44>
80001140:	00050793          	mv	a5,a0
80001144:	0100006f          	j	80001154 <memcmp+0x2c>
80001148:	00478793          	addi	a5,a5,4
8000114c:	00458593          	addi	a1,a1,4
80001150:	0107f863          	bgeu	a5,a6,80001160 <memcmp+0x38>
80001154:	0007a683          	lw	a3,0(a5)
80001158:	0005a703          	lw	a4,0(a1)
8000115c:	fee686e3          	beq	a3,a4,80001148 <memcmp+0x20>
80001160:	40a78533          	sub	a0,a5,a0
80001164:	40a60633          	sub	a2,a2,a0
80001168:	00078513          	mv	a0,a5
8000116c:	00c58633          	add	a2,a1,a2
80001170:	0140006f          	j	80001184 <memcmp+0x5c>
80001174:	fff54783          	lbu	a5,-1(a0)
80001178:	0005c703          	lbu	a4,0(a1)
8000117c:	00158593          	addi	a1,a1,1
80001180:	00e79a63          	bne	a5,a4,80001194 <memcmp+0x6c>
80001184:	00150513          	addi	a0,a0,1
80001188:	fec596e3          	bne	a1,a2,80001174 <memcmp+0x4c>
8000118c:	00000513          	li	a0,0
80001190:	00008067          	ret
80001194:	40e78533          	sub	a0,a5,a4
80001198:	00008067          	ret

8000119c <strcpy>:
8000119c:	00050793          	mv	a5,a0
800011a0:	0005c703          	lbu	a4,0(a1)
800011a4:	00158593          	addi	a1,a1,1
800011a8:	00178793          	addi	a5,a5,1
800011ac:	fee78fa3          	sb	a4,-1(a5)
800011b0:	fe0718e3          	bnez	a4,800011a0 <strcpy+0x4>
800011b4:	00008067          	ret

800011b8 <atol>:
800011b8:	00054703          	lbu	a4,0(a0)
800011bc:	02000693          	li	a3,32
800011c0:	00050793          	mv	a5,a0
800011c4:	00d71a63          	bne	a4,a3,800011d8 <atol+0x20>
800011c8:	00070693          	mv	a3,a4
800011cc:	0017c703          	lbu	a4,1(a5)
800011d0:	00178793          	addi	a5,a5,1
800011d4:	fed70ce3          	beq	a4,a3,800011cc <atol+0x14>
800011d8:	02d00693          	li	a3,45
800011dc:	04d70e63          	beq	a4,a3,80001238 <atol+0x80>
800011e0:	02b00693          	li	a3,43
800011e4:	04d70063          	beq	a4,a3,80001224 <atol+0x6c>
800011e8:	0007c683          	lbu	a3,0(a5)
800011ec:	00000593          	li	a1,0
800011f0:	04068c63          	beqz	a3,80001248 <atol+0x90>
800011f4:	00000513          	li	a0,0
800011f8:	00178793          	addi	a5,a5,1
800011fc:	fd068613          	addi	a2,a3,-48
80001200:	00251713          	slli	a4,a0,0x2
80001204:	0007c683          	lbu	a3,0(a5)
80001208:	00a70733          	add	a4,a4,a0
8000120c:	00171713          	slli	a4,a4,0x1
80001210:	00e60533          	add	a0,a2,a4
80001214:	fe0692e3          	bnez	a3,800011f8 <atol+0x40>
80001218:	02058a63          	beqz	a1,8000124c <atol+0x94>
8000121c:	40a00533          	neg	a0,a0
80001220:	00008067          	ret
80001224:	0017c683          	lbu	a3,1(a5)
80001228:	00178793          	addi	a5,a5,1
8000122c:	00068e63          	beqz	a3,80001248 <atol+0x90>
80001230:	00000593          	li	a1,0
80001234:	fc1ff06f          	j	800011f4 <atol+0x3c>
80001238:	0017c683          	lbu	a3,1(a5)
8000123c:	00100593          	li	a1,1
80001240:	00b787b3          	add	a5,a5,a1
80001244:	fa0698e3          	bnez	a3,800011f4 <atol+0x3c>
80001248:	00000513          	li	a0,0
8000124c:	00008067          	ret

80001250 <terminate>:
80001250:	ffc00637          	lui	a2,0xffc00
80001254:	00062703          	lw	a4,0(a2) # ffc00000 <freelist_head+0x7fbfaffc>
80001258:	00462783          	lw	a5,4(a2)
8000125c:	00050813          	mv	a6,a0
80001260:	41f55893          	srai	a7,a0,0x1f
80001264:	00f76733          	or	a4,a4,a5
80001268:	02070463          	beqz	a4,80001290 <terminate+0x40>
8000126c:	04060693          	addi	a3,a2,64
80001270:	00000713          	li	a4,0
80001274:	00e6a023          	sw	a4,0(a3)
80001278:	00000793          	li	a5,0
8000127c:	00f6a223          	sw	a5,4(a3)
80001280:	00062703          	lw	a4,0(a2)
80001284:	00462783          	lw	a5,4(a2)
80001288:	00f76733          	or	a4,a4,a5
8000128c:	fe0712e3          	bnez	a4,80001270 <terminate+0x20>
80001290:	ffc007b7          	lui	a5,0xffc00
80001294:	0107a023          	sw	a6,0(a5) # ffc00000 <freelist_head+0x7fbfaffc>
80001298:	0117a223          	sw	a7,4(a5)
8000129c:	0000006f          	j	8000129c <terminate+0x4c>

800012a0 <cputstring>:
800012a0:	00054583          	lbu	a1,0(a0)
800012a4:	04058e63          	beqz	a1,80001300 <cputstring+0x60>
800012a8:	ffc00637          	lui	a2,0xffc00
800012ac:	04060613          	addi	a2,a2,64 # ffc00040 <freelist_head+0x7fbfb03c>
800012b0:	ffc006b7          	lui	a3,0xffc00
800012b4:	0006a703          	lw	a4,0(a3) # ffc00000 <freelist_head+0x7fbfaffc>
800012b8:	0046a783          	lw	a5,4(a3)
800012bc:	00058813          	mv	a6,a1
800012c0:	010108b7          	lui	a7,0x1010
800012c4:	00f76733          	or	a4,a4,a5
800012c8:	00150513          	addi	a0,a0,1
800012cc:	02070263          	beqz	a4,800012f0 <cputstring+0x50>
800012d0:	00000713          	li	a4,0
800012d4:	00e62023          	sw	a4,0(a2)
800012d8:	00000793          	li	a5,0
800012dc:	00f62223          	sw	a5,4(a2)
800012e0:	0006a703          	lw	a4,0(a3)
800012e4:	0046a783          	lw	a5,4(a3)
800012e8:	00f76733          	or	a4,a4,a5
800012ec:	fe0712e3          	bnez	a4,800012d0 <cputstring+0x30>
800012f0:	0106a023          	sw	a6,0(a3)
800012f4:	0116a223          	sw	a7,4(a3)
800012f8:	00054583          	lbu	a1,0(a0)
800012fc:	fa059ce3          	bnez	a1,800012b4 <cputstring+0x14>
80001300:	00008067          	ret

80001304 <wtf>:
80001304:	ff010113          	addi	sp,sp,-16
80001308:	34900513          	li	a0,841
8000130c:	00112623          	sw	ra,12(sp)
80001310:	f41ff0ef          	jal	80001250 <terminate>

80001314 <printhex>:
80001314:	fe010113          	addi	sp,sp,-32
80001318:	00c10693          	addi	a3,sp,12
8000131c:	01b10713          	addi	a4,sp,27
80001320:	00900313          	li	t1,9
80001324:	0080006f          	j	8000132c <printhex+0x18>
80001328:	00078713          	mv	a4,a5
8000132c:	00f57793          	andi	a5,a0,15
80001330:	00f337b3          	sltu	a5,t1,a5
80001334:	40f007b3          	neg	a5,a5
80001338:	0277f793          	andi	a5,a5,39
8000133c:	00f57613          	andi	a2,a0,15
80001340:	03078793          	addi	a5,a5,48
80001344:	00c787b3          	add	a5,a5,a2
80001348:	00f70023          	sb	a5,0(a4)
8000134c:	00455513          	srli	a0,a0,0x4
80001350:	01c59793          	slli	a5,a1,0x1c
80001354:	00a7e533          	or	a0,a5,a0
80001358:	0045d593          	srli	a1,a1,0x4
8000135c:	fff70793          	addi	a5,a4,-1
80001360:	fce694e3          	bne	a3,a4,80001328 <printhex+0x14>
80001364:	00c14503          	lbu	a0,12(sp)
80001368:	00010e23          	sb	zero,28(sp)
8000136c:	06050063          	beqz	a0,800013cc <printhex+0xb8>
80001370:	ffc00637          	lui	a2,0xffc00
80001374:	00068593          	mv	a1,a3
80001378:	04060613          	addi	a2,a2,64 # ffc00040 <freelist_head+0x7fbfb03c>
8000137c:	ffc006b7          	lui	a3,0xffc00
80001380:	0006a703          	lw	a4,0(a3) # ffc00000 <freelist_head+0x7fbfaffc>
80001384:	0046a783          	lw	a5,4(a3)
80001388:	00050813          	mv	a6,a0
8000138c:	010108b7          	lui	a7,0x1010
80001390:	00f76733          	or	a4,a4,a5
80001394:	00158593          	addi	a1,a1,1
80001398:	02070263          	beqz	a4,800013bc <printhex+0xa8>
8000139c:	00000713          	li	a4,0
800013a0:	00e62023          	sw	a4,0(a2)
800013a4:	00000793          	li	a5,0
800013a8:	00f62223          	sw	a5,4(a2)
800013ac:	0006a703          	lw	a4,0(a3)
800013b0:	0046a783          	lw	a5,4(a3)
800013b4:	00f76733          	or	a4,a4,a5
800013b8:	fe0712e3          	bnez	a4,8000139c <printhex+0x88>
800013bc:	0106a023          	sw	a6,0(a3)
800013c0:	0116a223          	sw	a7,4(a3)
800013c4:	0005c503          	lbu	a0,0(a1)
800013c8:	fa051ce3          	bnez	a0,80001380 <printhex+0x6c>
800013cc:	02010113          	addi	sp,sp,32
800013d0:	00008067          	ret

800013d4 <handle_fault>:
800013d4:	fd010113          	addi	sp,sp,-48
800013d8:	00100793          	li	a5,1
800013dc:	fffff737          	lui	a4,0xfffff
800013e0:	00f12623          	sw	a5,12(sp)
800013e4:	02112623          	sw	ra,44(sp)
800013e8:	00012423          	sw	zero,8(sp)
800013ec:	00e506b3          	add	a3,a0,a4
800013f0:	0003e7b7          	lui	a5,0x3e
800013f4:	02812423          	sw	s0,40(sp)
800013f8:	02912223          	sw	s1,36(sp)
800013fc:	1af6fa63          	bgeu	a3,a5,800015b0 <handle_fault+0x1dc>
80001400:	01412c23          	sw	s4,24(sp)
80001404:	00c55a13          	srli	s4,a0,0xc
80001408:	400a0493          	addi	s1,s4,1024
8000140c:	01312e23          	sw	s3,28(sp)
80001410:	00249793          	slli	a5,s1,0x2
80001414:	00002997          	auipc	s3,0x2
80001418:	bec98993          	addi	s3,s3,-1044 # 80003000 <pt>
8000141c:	00f987b3          	add	a5,s3,a5
80001420:	0007a783          	lw	a5,0(a5) # 3e000 <tohost-0x3ffc2000>
80001424:	00e57433          	and	s0,a0,a4
80001428:	10079a63          	bnez	a5,8000153c <handle_fault+0x168>
8000142c:	00004717          	auipc	a4,0x4
80001430:	bd870713          	addi	a4,a4,-1064 # 80005004 <freelist_head>
80001434:	01512a23          	sw	s5,20(sp)
80001438:	00072a83          	lw	s5,0(a4)
8000143c:	03212023          	sw	s2,32(sp)
80001440:	1c0a8263          	beqz	s5,80001604 <handle_fault+0x230>
80001444:	004aa783          	lw	a5,4(s5)
80001448:	00004697          	auipc	a3,0x4
8000144c:	bb86a683          	lw	a3,-1096(a3) # 80005000 <freelist_tail>
80001450:	00f72023          	sw	a5,0(a4)
80001454:	14d78863          	beq	a5,a3,800015a4 <handle_fault+0x1d0>
80001458:	00c10613          	addi	a2,sp,12
8000145c:	00810593          	addi	a1,sp,8
80001460:	00040513          	mv	a0,s0
80001464:	000aa903          	lw	s2,0(s5)
80001468:	6a0000ef          	jal	80001b08 <pf_filter>
8000146c:	10051c63          	bnez	a0,80001584 <handle_fault+0x1b0>
80001470:	00c95713          	srli	a4,s2,0xc
80001474:	00a71713          	slli	a4,a4,0xa
80001478:	01f76713          	ori	a4,a4,31
8000147c:	00249613          	slli	a2,s1,0x2
80001480:	00c98633          	add	a2,s3,a2
80001484:	0c076793          	ori	a5,a4,192
80001488:	00f62023          	sw	a5,0(a2)
8000148c:	12040073          	sfence.vma	s0
80001490:	00001617          	auipc	a2,0x1
80001494:	b7060613          	addi	a2,a2,-1168 # 80002000 <user_mapping>
80001498:	003a1693          	slli	a3,s4,0x3
8000149c:	00d606b3          	add	a3,a2,a3
800014a0:	0006a783          	lw	a5,0(a3)
800014a4:	14079663          	bnez	a5,800015f0 <handle_fault+0x21c>
800014a8:	000aa603          	lw	a2,0(s5)
800014ac:	000407b7          	lui	a5,0x40
800014b0:	00c6a023          	sw	a2,0(a3)
800014b4:	004aa603          	lw	a2,4(s5)
800014b8:	00c6a223          	sw	a2,4(a3)
800014bc:	1007a5f3          	csrrs	a1,sstatus,a5
800014c0:	ffc007b7          	lui	a5,0xffc00
800014c4:	00f407b3          	add	a5,s0,a5
800014c8:	00001637          	lui	a2,0x1
800014cc:	00c78633          	add	a2,a5,a2
800014d0:	00040693          	mv	a3,s0
800014d4:	0007a303          	lw	t1,0(a5) # ffc00000 <freelist_head+0x7fbfaffc>
800014d8:	0047a883          	lw	a7,4(a5)
800014dc:	0087a803          	lw	a6,8(a5)
800014e0:	00c7a503          	lw	a0,12(a5)
800014e4:	0066a023          	sw	t1,0(a3)
800014e8:	0116a223          	sw	a7,4(a3)
800014ec:	0106a423          	sw	a6,8(a3)
800014f0:	00a6a623          	sw	a0,12(a3)
800014f4:	01078793          	addi	a5,a5,16
800014f8:	01068693          	addi	a3,a3,16
800014fc:	fcc79ce3          	bne	a5,a2,800014d4 <handle_fault+0x100>
80001500:	10059073          	csrw	sstatus,a1
80001504:	00249493          	slli	s1,s1,0x2
80001508:	009987b3          	add	a5,s3,s1
8000150c:	00e7a023          	sw	a4,0(a5)
80001510:	12040073          	sfence.vma	s0
80001514:	0000100f          	fence.i
80001518:	02812403          	lw	s0,40(sp)
8000151c:	02c12083          	lw	ra,44(sp)
80001520:	02012903          	lw	s2,32(sp)
80001524:	01412a83          	lw	s5,20(sp)
80001528:	02412483          	lw	s1,36(sp)
8000152c:	01c12983          	lw	s3,28(sp)
80001530:	01812a03          	lw	s4,24(sp)
80001534:	03010113          	addi	sp,sp,48
80001538:	00008067          	ret
8000153c:	0407f713          	andi	a4,a5,64
80001540:	04070e63          	beqz	a4,8000159c <handle_fault+0x1c8>
80001544:	0807f713          	andi	a4,a5,128
80001548:	08071663          	bnez	a4,800015d4 <handle_fault+0x200>
8000154c:	00f00713          	li	a4,15
80001550:	0807e793          	ori	a5,a5,128
80001554:	08e59063          	bne	a1,a4,800015d4 <handle_fault+0x200>
80001558:	00249493          	slli	s1,s1,0x2
8000155c:	009984b3          	add	s1,s3,s1
80001560:	00f4a023          	sw	a5,0(s1)
80001564:	12040073          	sfence.vma	s0
80001568:	02812403          	lw	s0,40(sp)
8000156c:	02c12083          	lw	ra,44(sp)
80001570:	02412483          	lw	s1,36(sp)
80001574:	01c12983          	lw	s3,28(sp)
80001578:	01812a03          	lw	s4,24(sp)
8000157c:	03010113          	addi	sp,sp,48
80001580:	00008067          	ret
80001584:	000aa703          	lw	a4,0(s5)
80001588:	00812783          	lw	a5,8(sp)
8000158c:	00c75713          	srli	a4,a4,0xc
80001590:	00a71713          	slli	a4,a4,0xa
80001594:	00f76733          	or	a4,a4,a5
80001598:	ee5ff06f          	j	8000147c <handle_fault+0xa8>
8000159c:	0407e793          	ori	a5,a5,64
800015a0:	fb9ff06f          	j	80001558 <handle_fault+0x184>
800015a4:	00004797          	auipc	a5,0x4
800015a8:	a407ae23          	sw	zero,-1444(a5) # 80005000 <freelist_tail>
800015ac:	eadff06f          	j	80001458 <handle_fault+0x84>
800015b0:	00000517          	auipc	a0,0x0
800015b4:	65c50513          	addi	a0,a0,1628 # 80001c0c <pass+0xc>
800015b8:	03212023          	sw	s2,32(sp)
800015bc:	01312e23          	sw	s3,28(sp)
800015c0:	01412c23          	sw	s4,24(sp)
800015c4:	01512a23          	sw	s5,20(sp)
800015c8:	cd9ff0ef          	jal	800012a0 <cputstring>
800015cc:	00300513          	li	a0,3
800015d0:	c81ff0ef          	jal	80001250 <terminate>
800015d4:	00000517          	auipc	a0,0x0
800015d8:	68450513          	addi	a0,a0,1668 # 80001c58 <pass+0x58>
800015dc:	03212023          	sw	s2,32(sp)
800015e0:	01512a23          	sw	s5,20(sp)
800015e4:	cbdff0ef          	jal	800012a0 <cputstring>
800015e8:	00300513          	li	a0,3
800015ec:	c65ff0ef          	jal	80001250 <terminate>
800015f0:	00000517          	auipc	a0,0x0
800015f4:	6c850513          	addi	a0,a0,1736 # 80001cb8 <pass+0xb8>
800015f8:	ca9ff0ef          	jal	800012a0 <cputstring>
800015fc:	00300513          	li	a0,3
80001600:	c51ff0ef          	jal	80001250 <terminate>
80001604:	00000517          	auipc	a0,0x0
80001608:	69c50513          	addi	a0,a0,1692 # 80001ca0 <pass+0xa0>
8000160c:	c95ff0ef          	jal	800012a0 <cputstring>
80001610:	00300513          	li	a0,3
80001614:	c3dff0ef          	jal	80001250 <terminate>

80001618 <handle_trap>:
80001618:	fb010113          	addi	sp,sp,-80
8000161c:	04812423          	sw	s0,72(sp)
80001620:	04112623          	sw	ra,76(sp)
80001624:	00050413          	mv	s0,a0
80001628:	4d8000ef          	jal	80001b00 <trap_filter>
8000162c:	10051063          	bnez	a0,8000172c <handle_trap+0x114>
80001630:	08c42583          	lw	a1,140(s0)
80001634:	00800793          	li	a5,8
80001638:	14f58463          	beq	a1,a5,80001780 <handle_trap+0x168>
8000163c:	00200793          	li	a5,2
80001640:	02f58a63          	beq	a1,a5,80001674 <handle_trap+0x5c>
80001644:	ff458793          	addi	a5,a1,-12
80001648:	00100713          	li	a4,1
8000164c:	00f77663          	bgeu	a4,a5,80001658 <handle_trap+0x40>
80001650:	00f00793          	li	a5,15
80001654:	26f59863          	bne	a1,a5,800018c4 <handle_trap+0x2ac>
80001658:	08842503          	lw	a0,136(s0)
8000165c:	d79ff0ef          	jal	800013d4 <handle_fault>
80001660:	00040513          	mv	a0,s0
80001664:	04812403          	lw	s0,72(sp)
80001668:	04c12083          	lw	ra,76(sp)
8000166c:	05010113          	addi	sp,sp,80
80001670:	a5dfe06f          	j	800000cc <pop_tf>
80001674:	08442783          	lw	a5,132(s0)
80001678:	0037f713          	andi	a4,a5,3
8000167c:	0c071263          	bnez	a4,80001740 <handle_trap+0x128>
80001680:	0007a703          	lw	a4,0(a5)
80001684:	008007ef          	jal	a5,8000168c <handle_trap+0x74>
80001688:	00301073          	fscsr	zero
8000168c:	0007a783          	lw	a5,0(a5)
80001690:	ffc00637          	lui	a2,0xffc00
80001694:	04912223          	sw	s1,68(sp)
80001698:	05212023          	sw	s2,64(sp)
8000169c:	03312e23          	sw	s3,60(sp)
800016a0:	03412c23          	sw	s4,56(sp)
800016a4:	03512a23          	sw	s5,52(sp)
800016a8:	03612823          	sw	s6,48(sp)
800016ac:	03712623          	sw	s7,44(sp)
800016b0:	03812423          	sw	s8,40(sp)
800016b4:	03912223          	sw	s9,36(sp)
800016b8:	03a12023          	sw	s10,32(sp)
800016bc:	01b12e23          	sw	s11,28(sp)
800016c0:	04060613          	addi	a2,a2,64 # ffc00040 <freelist_head+0x7fbfb03c>
800016c4:	04100513          	li	a0,65
800016c8:	00000597          	auipc	a1,0x0
800016cc:	62c58593          	addi	a1,a1,1580 # 80001cf4 <pass+0xf4>
800016d0:	ffc006b7          	lui	a3,0xffc00
800016d4:	06f70263          	beq	a4,a5,80001738 <handle_trap+0x120>
800016d8:	0006a703          	lw	a4,0(a3) # ffc00000 <freelist_head+0x7fbfaffc>
800016dc:	0046a783          	lw	a5,4(a3)
800016e0:	00050913          	mv	s2,a0
800016e4:	010109b7          	lui	s3,0x1010
800016e8:	00f76733          	or	a4,a4,a5
800016ec:	00158593          	addi	a1,a1,1
800016f0:	02070263          	beqz	a4,80001714 <handle_trap+0xfc>
800016f4:	00000793          	li	a5,0
800016f8:	00f62023          	sw	a5,0(a2)
800016fc:	00000813          	li	a6,0
80001700:	01062223          	sw	a6,4(a2)
80001704:	0006a703          	lw	a4,0(a3)
80001708:	0046a783          	lw	a5,4(a3)
8000170c:	00f76733          	or	a4,a4,a5
80001710:	fe0712e3          	bnez	a4,800016f4 <handle_trap+0xdc>
80001714:	0126a023          	sw	s2,0(a3)
80001718:	0136a223          	sw	s3,4(a3)
8000171c:	0005c503          	lbu	a0,0(a1)
80001720:	fa051ce3          	bnez	a0,800016d8 <handle_trap+0xc0>
80001724:	00300513          	li	a0,3
80001728:	b29ff0ef          	jal	80001250 <terminate>
8000172c:	00040513          	mv	a0,s0
80001730:	99dfe0ef          	jal	800000cc <pop_tf>
80001734:	efdff06f          	j	80001630 <handle_trap+0x18>
80001738:	00100513          	li	a0,1
8000173c:	b15ff0ef          	jal	80001250 <terminate>
80001740:	00000517          	auipc	a0,0x0
80001744:	64850513          	addi	a0,a0,1608 # 80001d88 <pass+0x188>
80001748:	04912223          	sw	s1,68(sp)
8000174c:	05212023          	sw	s2,64(sp)
80001750:	03312e23          	sw	s3,60(sp)
80001754:	03412c23          	sw	s4,56(sp)
80001758:	03512a23          	sw	s5,52(sp)
8000175c:	03612823          	sw	s6,48(sp)
80001760:	03712623          	sw	s7,44(sp)
80001764:	03812423          	sw	s8,40(sp)
80001768:	03912223          	sw	s9,36(sp)
8000176c:	03a12023          	sw	s10,32(sp)
80001770:	01b12e23          	sw	s11,28(sp)
80001774:	b2dff0ef          	jal	800012a0 <cputstring>
80001778:	00300513          	li	a0,3
8000177c:	ad5ff0ef          	jal	80001250 <terminate>
80001780:	02842783          	lw	a5,40(s0)
80001784:	00001437          	lui	s0,0x1
80001788:	03412c23          	sw	s4,56(sp)
8000178c:	03512a23          	sw	s5,52(sp)
80001790:	03612823          	sw	s6,48(sp)
80001794:	03712623          	sw	s7,44(sp)
80001798:	03812423          	sw	s8,40(sp)
8000179c:	03912223          	sw	s9,36(sp)
800017a0:	03a12023          	sw	s10,32(sp)
800017a4:	01b12e23          	sw	s11,28(sp)
800017a8:	04912223          	sw	s1,68(sp)
800017ac:	05212023          	sw	s2,64(sp)
800017b0:	03312e23          	sw	s3,60(sp)
800017b4:	00f12423          	sw	a5,8(sp)
800017b8:	00040b13          	mv	s6,s0
800017bc:	00001a97          	auipc	s5,0x1
800017c0:	844a8a93          	addi	s5,s5,-1980 # 80002000 <user_mapping>
800017c4:	00002d97          	auipc	s11,0x2
800017c8:	83cd8d93          	addi	s11,s11,-1988 # 80003000 <pt>
800017cc:	00040d37          	lui	s10,0x40
800017d0:	ffc00cb7          	lui	s9,0xffc00
800017d4:	00004a17          	auipc	s4,0x4
800017d8:	82ca0a13          	addi	s4,s4,-2004 # 80005000 <freelist_tail>
800017dc:	00004c17          	auipc	s8,0x4
800017e0:	828c0c13          	addi	s8,s8,-2008 # 80005004 <freelist_head>
800017e4:	0003fbb7          	lui	s7,0x3f
800017e8:	00c45793          	srli	a5,s0,0xc
800017ec:	00379993          	slli	s3,a5,0x3
800017f0:	013a8733          	add	a4,s5,s3
800017f4:	00072703          	lw	a4,0(a4)
800017f8:	08070e63          	beqz	a4,80001894 <handle_trap+0x27c>
800017fc:	40078793          	addi	a5,a5,1024
80001800:	00279793          	slli	a5,a5,0x2
80001804:	00fd87b3          	add	a5,s11,a5
80001808:	0007a483          	lw	s1,0(a5)
8000180c:	0404f793          	andi	a5,s1,64
80001810:	0a078063          	beqz	a5,800018b0 <handle_trap+0x298>
80001814:	100d26f3          	csrrs	a3,sstatus,s10
80001818:	01940933          	add	s2,s0,s9
8000181c:	00090593          	mv	a1,s2
80001820:	00040513          	mv	a0,s0
80001824:	00001637          	lui	a2,0x1
80001828:	00d12623          	sw	a3,12(sp)
8000182c:	8fdff0ef          	jal	80001128 <memcmp>
80001830:	00c12683          	lw	a3,12(sp)
80001834:	04050263          	beqz	a0,80001878 <handle_trap+0x260>
80001838:	0804f493          	andi	s1,s1,128
8000183c:	0c048263          	beqz	s1,80001900 <handle_trap+0x2e8>
80001840:	00090793          	mv	a5,s2
80001844:	00040713          	mv	a4,s0
80001848:	01640633          	add	a2,s0,s6
8000184c:	00072883          	lw	a7,0(a4)
80001850:	00472803          	lw	a6,4(a4)
80001854:	00872503          	lw	a0,8(a4)
80001858:	00c72583          	lw	a1,12(a4)
8000185c:	0117a023          	sw	a7,0(a5)
80001860:	0107a223          	sw	a6,4(a5)
80001864:	00a7a423          	sw	a0,8(a5)
80001868:	00b7a623          	sw	a1,12(a5)
8000186c:	01070713          	addi	a4,a4,16
80001870:	01078793          	addi	a5,a5,16
80001874:	fcc71ce3          	bne	a4,a2,8000184c <handle_trap+0x234>
80001878:	013a87b3          	add	a5,s5,s3
8000187c:	10069073          	csrw	sstatus,a3
80001880:	000a2703          	lw	a4,0(s4)
80001884:	0007a023          	sw	zero,0(a5)
80001888:	00070e63          	beqz	a4,800018a4 <handle_trap+0x28c>
8000188c:	00f72223          	sw	a5,4(a4)
80001890:	00fa2023          	sw	a5,0(s4)
80001894:	01640433          	add	s0,s0,s6
80001898:	f57418e3          	bne	s0,s7,800017e8 <handle_trap+0x1d0>
8000189c:	00812503          	lw	a0,8(sp)
800018a0:	9b1ff0ef          	jal	80001250 <terminate>
800018a4:	00fa2023          	sw	a5,0(s4)
800018a8:	00fc2023          	sw	a5,0(s8)
800018ac:	fe9ff06f          	j	80001894 <handle_trap+0x27c>
800018b0:	00000517          	auipc	a0,0x0
800018b4:	47050513          	addi	a0,a0,1136 # 80001d20 <pass+0x120>
800018b8:	9e9ff0ef          	jal	800012a0 <cputstring>
800018bc:	00300513          	li	a0,3
800018c0:	991ff0ef          	jal	80001250 <terminate>
800018c4:	00000517          	auipc	a0,0x0
800018c8:	4e850513          	addi	a0,a0,1256 # 80001dac <pass+0x1ac>
800018cc:	04912223          	sw	s1,68(sp)
800018d0:	05212023          	sw	s2,64(sp)
800018d4:	03312e23          	sw	s3,60(sp)
800018d8:	03412c23          	sw	s4,56(sp)
800018dc:	03512a23          	sw	s5,52(sp)
800018e0:	03612823          	sw	s6,48(sp)
800018e4:	03712623          	sw	s7,44(sp)
800018e8:	03812423          	sw	s8,40(sp)
800018ec:	03912223          	sw	s9,36(sp)
800018f0:	03a12023          	sw	s10,32(sp)
800018f4:	01b12e23          	sw	s11,28(sp)
800018f8:	9a9ff0ef          	jal	800012a0 <cputstring>
800018fc:	e29ff06f          	j	80001724 <handle_trap+0x10c>
80001900:	00000517          	auipc	a0,0x0
80001904:	45450513          	addi	a0,a0,1108 # 80001d54 <pass+0x154>
80001908:	999ff0ef          	jal	800012a0 <cputstring>
8000190c:	00300513          	li	a0,3
80001910:	941ff0ef          	jal	80001250 <terminate>

80001914 <vm_boot>:
80001914:	f14027f3          	csrr	a5,mhartid
80001918:	16079863          	bnez	a5,80001a88 <vm_boot+0x174>
8000191c:	f6010113          	addi	sp,sp,-160
80001920:	08812c23          	sw	s0,152(sp)
80001924:	00050413          	mv	s0,a0
80001928:	00002517          	auipc	a0,0x2
8000192c:	6d850513          	addi	a0,a0,1752 # 80004000 <pt+0x1000>
80001930:	00c55793          	srli	a5,a0,0xc
80001934:	00001597          	auipc	a1,0x1
80001938:	6cc58593          	addi	a1,a1,1740 # 80003000 <pt>
8000193c:	20000637          	lui	a2,0x20000
80001940:	00a79793          	slli	a5,a5,0xa
80001944:	08112e23          	sw	ra,156(sp)
80001948:	0cf60613          	addi	a2,a2,207 # 200000cf <tohost-0x1fffff31>
8000194c:	0017e793          	ori	a5,a5,1
80001950:	00c5d693          	srli	a3,a1,0xc
80001954:	80000737          	lui	a4,0x80000
80001958:	00f5a023          	sw	a5,0(a1)
8000195c:	fec52e23          	sw	a2,-4(a0)
80001960:	00e6e7b3          	or	a5,a3,a4
80001964:	18079073          	csrw	satp,a5
80001968:	180026f3          	csrr	a3,satp
8000196c:	16d79e63          	bne	a5,a3,80001ae8 <vm_boot+0x1d4>
80001970:	fff70713          	addi	a4,a4,-1 # 7fffffff <fromhost+0x3fffffbf>
80001974:	01f00793          	li	a5,31
80001978:	00000297          	auipc	t0,0x0
8000197c:	01428293          	addi	t0,t0,20 # 8000198c <vm_boot+0x78>
80001980:	305292f3          	csrrw	t0,mtvec,t0
80001984:	3b071073          	csrw	pmpaddr0,a4
80001988:	3a079073          	csrw	pmpcfg0,a5
8000198c:	30529073          	csrw	mtvec,t0
80001990:	7fbfe797          	auipc	a5,0x7fbfe
80001994:	7c478793          	addi	a5,a5,1988 # ffc00154 <freelist_head+0x7fbfb150>
80001998:	10579073          	csrw	stvec,a5
8000199c:	340027f3          	csrr	a5,mscratch
800019a0:	7fc00737          	lui	a4,0x7fc00
800019a4:	00e787b3          	add	a5,a5,a4
800019a8:	14079073          	csrw	sscratch,a5
800019ac:	0000b7b7          	lui	a5,0xb
800019b0:	10078793          	addi	a5,a5,256 # b100 <tohost-0x3fff4f00>
800019b4:	30279073          	csrw	medeleg,a5
800019b8:	0001e7b7          	lui	a5,0x1e
800019bc:	60078793          	addi	a5,a5,1536 # 1e600 <tohost-0x3ffe1a00>
800019c0:	30079073          	csrw	mstatus,a5
800019c4:	30405073          	csrwi	mie,0
800019c8:	7fc01717          	auipc	a4,0x7fc01
800019cc:	83070713          	addi	a4,a4,-2000 # ffc021f8 <freelist_head+0x7fbfd1f4>
800019d0:	7fc01797          	auipc	a5,0x7fc01
800019d4:	a1878793          	addi	a5,a5,-1512 # ffc023e8 <freelist_head+0x7fbfd3e4>
800019d8:	00003697          	auipc	a3,0x3
800019dc:	62e6a623          	sw	a4,1580(a3) # 80005004 <freelist_head>
800019e0:	00080337          	lui	t1,0x80
800019e4:	00003717          	auipc	a4,0x3
800019e8:	60f72e23          	sw	a5,1564(a4) # 80005000 <freelist_tail>
800019ec:	7fc008b7          	lui	a7,0x7fc00
800019f0:	03f30313          	addi	t1,t1,63 # 8003f <tohost-0x3ff7ffc1>
800019f4:	00888893          	addi	a7,a7,8 # 7fc00008 <fromhost+0x3fbfffc8>
800019f8:	00001717          	auipc	a4,0x1
800019fc:	80070713          	addi	a4,a4,-2048 # 800021f8 <freelist_nodes>
80001a00:	00001e17          	auipc	t3,0x1
80001a04:	9f0e0e13          	addi	t3,t3,-1552 # 800023f0 <freelist_nodes+0x1f8>
80001a08:	02e00793          	li	a5,46
80001a0c:	00000593          	li	a1,0
80001a10:	01f59693          	slli	a3,a1,0x1f
80001a14:	0017d613          	srli	a2,a5,0x1
80001a18:	00c6e633          	or	a2,a3,a2
80001a1c:	00f646b3          	xor	a3,a2,a5
80001a20:	006787b3          	add	a5,a5,t1
80001a24:	00c79793          	slli	a5,a5,0xc
80001a28:	01170833          	add	a6,a4,a7
80001a2c:	00569693          	slli	a3,a3,0x5
80001a30:	00f72023          	sw	a5,0(a4)
80001a34:	0206f693          	andi	a3,a3,32
80001a38:	01072223          	sw	a6,4(a4)
80001a3c:	00870713          	addi	a4,a4,8
80001a40:	0015d593          	srli	a1,a1,0x1
80001a44:	00d667b3          	or	a5,a2,a3
80001a48:	fcee14e3          	bne	t3,a4,80001a10 <vm_boot+0xfc>
80001a4c:	00010513          	mv	a0,sp
80001a50:	09000613          	li	a2,144
80001a54:	00000593          	li	a1,0
80001a58:	00001797          	auipc	a5,0x1
80001a5c:	9807aa23          	sw	zero,-1644(a5) # 800023ec <freelist_nodes+0x1f4>
80001a60:	dfcff0ef          	jal	8000105c <memset>
80001a64:	800007b7          	lui	a5,0x80000
80001a68:	00f40433          	add	s0,s0,a5
80001a6c:	00010513          	mv	a0,sp
80001a70:	08812223          	sw	s0,132(sp)
80001a74:	e58fe0ef          	jal	800000cc <pop_tf>
80001a78:	09c12083          	lw	ra,156(sp)
80001a7c:	09812403          	lw	s0,152(sp)
80001a80:	0a010113          	addi	sp,sp,160
80001a84:	00008067          	ret
80001a88:	0f7eb7b7          	lui	a5,0xf7eb
80001a8c:	00080637          	lui	a2,0x80
80001a90:	96e78793          	addi	a5,a5,-1682 # f7ea96e <tohost-0x30815692>
80001a94:	ffc60613          	addi	a2,a2,-4 # 7fffc <tohost-0x3ff80004>
80001a98:	00000713          	li	a4,0
80001a9c:	80000837          	lui	a6,0x80000
80001aa0:	40000537          	lui	a0,0x40000
80001aa4:	02c0006f          	j	80001ad0 <vm_boot+0x1bc>
80001aa8:	0006a02f          	amoadd.w	zero,zero,(a3)
80001aac:	01f71593          	slli	a1,a4,0x1f
80001ab0:	0017d693          	srli	a3,a5,0x1
80001ab4:	00d5e6b3          	or	a3,a1,a3
80001ab8:	00d7c7b3          	xor	a5,a5,a3
80001abc:	01e79793          	slli	a5,a5,0x1e
80001ac0:	00a7f7b3          	and	a5,a5,a0
80001ac4:	00175713          	srli	a4,a4,0x1
80001ac8:	00e7e733          	or	a4,a5,a4
80001acc:	00068793          	mv	a5,a3
80001ad0:	00c7f6b3          	and	a3,a5,a2
80001ad4:	0017f593          	andi	a1,a5,1
80001ad8:	010686b3          	add	a3,a3,a6
80001adc:	fc0596e3          	bnez	a1,80001aa8 <vm_boot+0x194>
80001ae0:	0006a003          	lw	zero,0(a3)
80001ae4:	fc9ff06f          	j	80001aac <vm_boot+0x198>
80001ae8:	00000517          	auipc	a0,0x0
80001aec:	2f050513          	addi	a0,a0,752 # 80001dd8 <pass+0x1d8>
80001af0:	fb0ff0ef          	jal	800012a0 <cputstring>
80001af4:	00300513          	li	a0,3
80001af8:	f58ff0ef          	jal	80001250 <terminate>

80001afc <extra_boot>:
80001afc:	00008067          	ret

80001b00 <trap_filter>:
80001b00:	00000513          	li	a0,0
80001b04:	00008067          	ret

80001b08 <pf_filter>:
80001b08:	00000513          	li	a0,0
80001b0c:	00008067          	ret

80001b10 <userstart>:
80001b10:	00200193          	li	gp,2
80001b14:	01400093          	li	ra,20
80001b18:	00600113          	li	sp,6
80001b1c:	0220d733          	divu	a4,ra,sp
80001b20:	00300393          	li	t2,3
80001b24:	0c771663          	bne	a4,t2,80001bf0 <fail>

80001b28 <test_3>:
80001b28:	00300193          	li	gp,3
80001b2c:	fec00093          	li	ra,-20
80001b30:	00600113          	li	sp,6
80001b34:	0220d733          	divu	a4,ra,sp
80001b38:	2aaab3b7          	lui	t2,0x2aaab
80001b3c:	aa738393          	addi	t2,t2,-1369 # 2aaaaaa7 <tohost-0x15555559>
80001b40:	0a771863          	bne	a4,t2,80001bf0 <fail>

80001b44 <test_4>:
80001b44:	00400193          	li	gp,4
80001b48:	01400093          	li	ra,20
80001b4c:	ffa00113          	li	sp,-6
80001b50:	0220d733          	divu	a4,ra,sp
80001b54:	00000393          	li	t2,0
80001b58:	08771c63          	bne	a4,t2,80001bf0 <fail>

80001b5c <test_5>:
80001b5c:	00500193          	li	gp,5
80001b60:	fec00093          	li	ra,-20
80001b64:	ffa00113          	li	sp,-6
80001b68:	0220d733          	divu	a4,ra,sp
80001b6c:	00000393          	li	t2,0
80001b70:	08771063          	bne	a4,t2,80001bf0 <fail>

80001b74 <test_6>:
80001b74:	00600193          	li	gp,6
80001b78:	800000b7          	lui	ra,0x80000
80001b7c:	00100113          	li	sp,1
80001b80:	0220d733          	divu	a4,ra,sp
80001b84:	800003b7          	lui	t2,0x80000
80001b88:	06771463          	bne	a4,t2,80001bf0 <fail>

80001b8c <test_7>:
80001b8c:	00700193          	li	gp,7
80001b90:	800000b7          	lui	ra,0x80000
80001b94:	fff00113          	li	sp,-1
80001b98:	0220d733          	divu	a4,ra,sp
80001b9c:	00000393          	li	t2,0
80001ba0:	04771863          	bne	a4,t2,80001bf0 <fail>

80001ba4 <test_8>:
80001ba4:	00800193          	li	gp,8
80001ba8:	800000b7          	lui	ra,0x80000
80001bac:	00000113          	li	sp,0
80001bb0:	0220d733          	divu	a4,ra,sp
80001bb4:	fff00393          	li	t2,-1
80001bb8:	02771c63          	bne	a4,t2,80001bf0 <fail>

80001bbc <test_9>:
80001bbc:	00900193          	li	gp,9
80001bc0:	00100093          	li	ra,1
80001bc4:	00000113          	li	sp,0
80001bc8:	0220d733          	divu	a4,ra,sp
80001bcc:	fff00393          	li	t2,-1
80001bd0:	02771063          	bne	a4,t2,80001bf0 <fail>

80001bd4 <test_10>:
80001bd4:	00a00193          	li	gp,10
80001bd8:	00000093          	li	ra,0
80001bdc:	00000113          	li	sp,0
80001be0:	0220d733          	divu	a4,ra,sp
80001be4:	fff00393          	li	t2,-1
80001be8:	00771463          	bne	a4,t2,80001bf0 <fail>
80001bec:	00301a63          	bne	zero,gp,80001c00 <pass>

80001bf0 <fail>:
80001bf0:	00119513          	slli	a0,gp,0x1
80001bf4:	00050063          	beqz	a0,80001bf4 <fail+0x4>
80001bf8:	00156513          	ori	a0,a0,1
80001bfc:	00000073          	ecall

80001c00 <pass>:
80001c00:	00100513          	li	a0,1
80001c04:	00000073          	ecall
80001c08:	c0001073          	unimp
